; Function Attrs: mustprogress uwtable
define dso_local void @_ZN28btHashedOverlappingPairCache26processAllOverlappingPairsEP17btOverlapCallbackP12btDispatcher(ptr noundef nonnull align 8 dereferenceable(120) %this, ptr noundef %callback, ptr noundef %dispatcher) unnamed_addr #0 align 2 personality ptr @__gxx_personality_v0 {
entry:
  %__profile = alloca %class.CProfileSample, align 1
  call void @_ZN14CProfileSampleC1EPKc(ptr noundef nonnull align 1 dereferenceable(1) %__profile, ptr noundef nonnull @.str)
  %m_size.i = getelementptr inbounds i8, ptr %this, i64 12
  %0 = load i32, ptr %m_size.i, align 4
  %cmp5 = icmp sgt i32 %0, 0
  br i1 %cmp5, label %for.body.lr.ph, label %for.end

for.body.lr.ph:                                   ; preds = %entry
  %m_data.i = getelementptr inbounds i8, ptr %this, i64 24
  br label %for.body

for.body:                                         ; preds = %for.body.lr.ph, %if.end
  %i.06 = phi i32 [ 0, %for.body.lr.ph ], [ %i.1, %if.end ]
  %1 = load ptr, ptr %m_data.i, align 8
  %idxprom.i = sext i32 %i.06 to i64
  %arrayidx.i = getelementptr inbounds %struct.btBroadphasePair, ptr %1, i64 %idxprom.i
  %vtable = load ptr, ptr %callback, align 8
  %vfn = getelementptr inbounds i8, ptr %vtable, i64 16
  %2 = load ptr, ptr %vfn, align 8
  %call6 = invoke noundef zeroext i1 %2(ptr noundef nonnull align 8 dereferenceable(8) %callback, ptr noundef nonnull align 8 dereferenceable(32) %arrayidx.i)
          to label %invoke.cont5 unwind label %lpad

invoke.cont5:                                     ; preds = %for.body
  br i1 %call6, label %if.then, label %if.else

if.then:                                          ; preds = %invoke.cont5
  %3 = load ptr, ptr %arrayidx.i, align 8
  %m_pProxy1 = getelementptr inbounds i8, ptr %arrayidx.i, i64 8
  %4 = load ptr, ptr %m_pProxy1, align 8
  %vtable7 = load ptr, ptr %this, align 8
  %vfn8 = getelementptr inbounds i8, ptr %vtable7, i64 24
  %5 = load ptr, ptr %vfn8, align 8
  %call10 = invoke noundef ptr %5(ptr noundef nonnull align 8 dereferenceable(120) %this, ptr noundef %3, ptr noundef %4, ptr noundef %dispatcher)
          to label %if.end unwind label %lpad

lpad:                                             ; preds = %if.then, %for.body
  %6 = landingpad { ptr, i32 }
          cleanup
  call void @_ZN14CProfileSampleD1Ev(ptr noundef nonnull align 1 dereferenceable(1) %__profile) #12
  resume { ptr, i32 } %6

if.else:                                          ; preds = %invoke.cont5
  %inc = add nsw i32 %i.06, 1
  br label %if.end

if.end:                                           ; preds = %if.then, %if.else
  %i.1 = phi i32 [ %i.06, %if.then ], [ %inc, %if.else ]
  %7 = load i32, ptr %m_size.i, align 4
  %cmp = icmp slt i32 %i.1, %7
  br i1 %cmp, label %for.body, label %for.end, !llvm.loop !16

for.end:                                          ; preds = %if.end, %entry
  call void @_ZN14CProfileSampleD1Ev(ptr noundef nonnull align 1 dereferenceable(1) %__profile) #12
  ret void
}